target datalayout = "e-m:e-p270:32:32-p271:32:32-p272:64:64-i64:64-i128:128-f80:128-n8:16:32:64-S128"
target triple = "x86_64-pc-linux-gnu"

%struct.evp_pkey_method_st = type { i32, i32, ptr, ptr, ptr, ptr, ptr, ptr, ptr, ptr, ptr, ptr, ptr, ptr, ptr, ptr, ptr, ptr, ptr, ptr, ptr, ptr, ptr, ptr, ptr, ptr, ptr, ptr, ptr, ptr, ptr, ptr, ptr }
%struct.RSA_PKEY_CTX = type { i32, ptr, i32, [2 x i32], i32, ptr, ptr, i32, i32, ptr, ptr, i64, i32 }
%struct.evp_pkey_ctx_st = type { i32, ptr, ptr, ptr, ptr, %union.anon, %struct.anon.4, ptr, ptr, ptr, i32, i32, ptr, ptr, ptr, ptr, ptr, i8, ptr }
%union.anon = type { %struct.anon.0 }
%struct.anon.0 = type { ptr, ptr }
%struct.anon.4 = type { ptr, ptr, i64, i8 }

@.str = private unnamed_addr constant [34 x i8] c"../openssl/crypto/rsa/rsa_pmeth.c\00", align 1

; Function Attrs: nounwind uwtable
define internal i32 @pkey_rsa_init(ptr noundef %0) #0 {
  %2 = alloca i32, align 4
  %3 = alloca ptr, align 8
  %4 = alloca ptr, align 8
  %5 = alloca i32, align 4
  store ptr %0, ptr %3, align 8, !tbaa !3
  call void @llvm.lifetime.start.p0(i64 8, ptr %4) #8
  %6 = call noalias ptr @CRYPTO_zalloc(i64 noundef 88, ptr noundef @.str, i32 noundef 64)
  store ptr %6, ptr %4, align 8, !tbaa !8
  %7 = load ptr, ptr %4, align 8, !tbaa !8
  %8 = icmp eq ptr %7, null
  br i1 %8, label %9, label %10

9:                                                ; preds = %1
  store i32 0, ptr %2, align 4
  store i32 1, ptr %5, align 4
  br label %44

10:                                               ; preds = %1
  %11 = load ptr, ptr %4, align 8, !tbaa !8
  %12 = getelementptr inbounds nuw %struct.RSA_PKEY_CTX, ptr %11, i32 0, i32 0
  store i32 2048, ptr %12, align 8, !tbaa !9
  %13 = load ptr, ptr %4, align 8, !tbaa !8
  %14 = getelementptr inbounds nuw %struct.RSA_PKEY_CTX, ptr %13, i32 0, i32 2
  store i32 2, ptr %14, align 8, !tbaa !16
  %15 = load ptr, ptr %3, align 8, !tbaa !3
  %16 = getelementptr inbounds nuw %struct.evp_pkey_ctx_st, ptr %15, i32 0, i32 12
  %17 = load ptr, ptr %16, align 8, !tbaa !17
  %18 = getelementptr inbounds nuw %struct.evp_pkey_method_st, ptr %17, i32 0, i32 0
  %19 = load i32, ptr %18, align 8, !tbaa !26
  %20 = icmp eq i32 %19, 912
  br i1 %20, label %21, label %24

21:                                               ; preds = %10
  %22 = load ptr, ptr %4, align 8, !tbaa !8
  %23 = getelementptr inbounds nuw %struct.RSA_PKEY_CTX, ptr %22, i32 0, i32 4
  store i32 6, ptr %23, align 4, !tbaa !28
  br label %27

24:                                               ; preds = %10
  %25 = load ptr, ptr %4, align 8, !tbaa !8
  %26 = getelementptr inbounds nuw %struct.RSA_PKEY_CTX, ptr %25, i32 0, i32 4
  store i32 1, ptr %26, align 4, !tbaa !28
  br label %27

27:                                               ; preds = %24, %21
  %28 = load ptr, ptr %4, align 8, !tbaa !8
  %29 = getelementptr inbounds nuw %struct.RSA_PKEY_CTX, ptr %28, i32 0, i32 7
  store i32 -2, ptr %29, align 8, !tbaa !29
  %30 = load ptr, ptr %4, align 8, !tbaa !8
  %31 = getelementptr inbounds nuw %struct.RSA_PKEY_CTX, ptr %30, i32 0, i32 8
  store i32 -1, ptr %31, align 4, !tbaa !30
  %32 = load ptr, ptr %4, align 8, !tbaa !8
  %33 = getelementptr inbounds nuw %struct.RSA_PKEY_CTX, ptr %32, i32 0, i32 12
  store i32 1, ptr %33, align 8, !tbaa !31
  %34 = load ptr, ptr %4, align 8, !tbaa !8
  %35 = load ptr, ptr %3, align 8, !tbaa !3
  %36 = getelementptr inbounds nuw %struct.evp_pkey_ctx_st, ptr %35, i32 0, i32 16
  store ptr %34, ptr %36, align 8, !tbaa !32
  %37 = load ptr, ptr %4, align 8, !tbaa !8
  %38 = getelementptr inbounds nuw %struct.RSA_PKEY_CTX, ptr %37, i32 0, i32 3
  %39 = getelementptr inbounds [2 x i32], ptr %38, i64 0, i64 0
  %40 = load ptr, ptr %3, align 8, !tbaa !3
  %41 = getelementptr inbounds nuw %struct.evp_pkey_ctx_st, ptr %40, i32 0, i32 9
  store ptr %39, ptr %41, align 8, !tbaa !33
  %42 = load ptr, ptr %3, align 8, !tbaa !3
  %43 = getelementptr inbounds nuw %struct.evp_pkey_ctx_st, ptr %42, i32 0, i32 10
  store i32 2, ptr %43, align 8, !tbaa !34
  store i32 1, ptr %2, align 4
  store i32 1, ptr %5, align 4
  br label %44

44:                                               ; preds = %27, %9
  call void @llvm.lifetime.end.p0(i64 8, ptr %4) #8
  %45 = load i32, ptr %2, align 4
  ret i32 %45
}