; Function Attrs: nounwind uwtable
define internal range(i32 0, 2) i32 @pkey_rsa_init(ptr noundef captures(none) %0) #1 {
  %2 = tail call noalias ptr @CRYPTO_zalloc(i64 noundef 88, ptr noundef nonnull @.str, i32 noundef 64) #9
  %3 = icmp eq ptr %2, null
  br i1 %3, label %18, label %4

4:                                                ; preds = %1
  store i32 2048, ptr %2, align 8, !tbaa !3
  %5 = getelementptr inbounds nuw i8, ptr %2, i64 16
  store i32 2, ptr %5, align 8, !tbaa !13
  %6 = getelementptr inbounds nuw i8, ptr %0, i64 120
  %7 = load ptr, ptr %6, align 8, !tbaa !14
  %8 = load i32, ptr %7, align 8, !tbaa !23
  %9 = icmp eq i32 %8, 912
  %spec.select = select i1 %9, i32 6, i32 1
  %10 = getelementptr inbounds nuw i8, ptr %2, i64 28
  store i32 %spec.select, ptr %10, align 4, !tbaa !25
  %11 = getelementptr inbounds nuw i8, ptr %2, i64 48
  store i32 -2, ptr %11, align 8, !tbaa !26
  %12 = getelementptr inbounds nuw i8, ptr %2, i64 52
  store i32 -1, ptr %12, align 4, !tbaa !27
  %13 = getelementptr inbounds nuw i8, ptr %2, i64 80
  store i32 1, ptr %13, align 8, !tbaa !28
  %14 = getelementptr inbounds nuw i8, ptr %0, i64 152
  store ptr %2, ptr %14, align 8, !tbaa !29
  %15 = getelementptr inbounds nuw i8, ptr %2, i64 20
  %16 = getelementptr inbounds nuw i8, ptr %0, i64 104
  store ptr %15, ptr %16, align 8, !tbaa !30
  %17 = getelementptr inbounds nuw i8, ptr %0, i64 112
  store i32 2, ptr %17, align 8, !tbaa !31
  br label %18

18:                                               ; preds = %1, %4
  %.0 = phi i32 [ 1, %4 ], [ 0, %1 ]
  ret i32 %.0
}